; Function Attrs: mustprogress nounwind sspstrong uwtable
define internal fastcc void @_ZL30__itt_free_allocated_resourcesv() unnamed_addr #5 {
  %1 = load ptr, ptr getelementptr inbounds nuw (i8, ptr @__itt__ittapi_global, i64 152), align 8, !tbaa !50
  %.not34 = icmp eq ptr %1, null
  br i1 %.not34, label %._crit_edge, label %.lr.ph

.lr.ph:                                           ; preds = %0, %.lr.ph
  %.035 = phi ptr [ %3, %.lr.ph ], [ %1, %0 ]
  %2 = getelementptr inbounds nuw i8, ptr %.035, i64 32
  %3 = load ptr, ptr %2, align 8, !tbaa !51
  %4 = load ptr, ptr %.035, align 8, !tbaa !45
  tail call void @free(ptr noundef %4) #17
  tail call void @free(ptr noundef nonnull %.035) #17
  %.not = icmp eq ptr %3, null
  br i1 %.not, label %._crit_edge, label %.lr.ph, !llvm.loop !131

._crit_edge:                                      ; preds = %.lr.ph, %0
  store ptr null, ptr getelementptr inbounds nuw (i8, ptr @__itt__ittapi_global, i64 152), align 8, !tbaa !50
  %5 = load ptr, ptr getelementptr inbounds nuw (i8, ptr @__itt__ittapi_global, i64 144), align 8, !tbaa !35
  %.not3036 = icmp eq ptr %5, null
  br i1 %.not3036, label %._crit_edge40, label %.lr.ph39

.lr.ph39:                                         ; preds = %._crit_edge, %.lr.ph39
  %.02737 = phi ptr [ %7, %.lr.ph39 ], [ %5, %._crit_edge ]
  %6 = getelementptr inbounds nuw i8, ptr %.02737, i64 40
  %7 = load ptr, ptr %6, align 8, !tbaa !36
  %8 = getelementptr inbounds nuw i8, ptr %.02737, i64 8
  %9 = load ptr, ptr %8, align 8, !tbaa !26
  tail call void @free(ptr noundef %9) #17
  tail call void @free(ptr noundef nonnull %.02737) #17
  %.not30 = icmp eq ptr %7, null
  br i1 %.not30, label %._crit_edge40, label %.lr.ph39, !llvm.loop !132

._crit_edge40:                                    ; preds = %.lr.ph39, %._crit_edge
  store ptr null, ptr getelementptr inbounds nuw (i8, ptr @__itt__ittapi_global, i64 144), align 8, !tbaa !35
  %10 = load ptr, ptr getelementptr inbounds nuw (i8, ptr @__itt__ittapi_global, i64 168), align 8, !tbaa !63
  %.not3141 = icmp eq ptr %10, null
  br i1 %.not3141, label %._crit_edge45, label %.lr.ph44

.lr.ph44:                                         ; preds = %._crit_edge40, %.lr.ph44
  %.02942 = phi ptr [ %12, %.lr.ph44 ], [ %10, %._crit_edge40 ]
  %11 = getelementptr inbounds nuw i8, ptr %.02942, i64 64
  %12 = load ptr, ptr %11, align 8, !tbaa !62
  %13 = load ptr, ptr %.02942, align 8, !tbaa !54
  tail call void @free(ptr noundef %13) #17
  %14 = getelementptr inbounds nuw i8, ptr %.02942, i64 16
  %15 = load ptr, ptr %14, align 8, !tbaa !57
  tail call void @free(ptr noundef %15) #17
  tail call void @free(ptr noundef nonnull %.02942) #17
  %.not31 = icmp eq ptr %12, null
  br i1 %.not31, label %._crit_edge45, label %.lr.ph44, !llvm.loop !133

._crit_edge45:                                    ; preds = %.lr.ph44, %._crit_edge40
  store ptr null, ptr getelementptr inbounds nuw (i8, ptr @__itt__ittapi_global, i64 168), align 8, !tbaa !63
  %16 = load ptr, ptr getelementptr inbounds nuw (i8, ptr @__itt__ittapi_global, i64 184), align 8, !tbaa !77
  %.not3246 = icmp eq ptr %16, null
  br i1 %.not3246, label %._crit_edge50, label %.lr.ph49

.lr.ph49:                                         ; preds = %._crit_edge45, %.lr.ph49
  %.02847 = phi ptr [ %18, %.lr.ph49 ], [ %16, %._crit_edge45 ]
  %17 = getelementptr inbounds nuw i8, ptr %.02847, i64 48
  %18 = load ptr, ptr %17, align 8, !tbaa !78
  %19 = getelementptr inbounds nuw i8, ptr %.02847, i64 8
  %20 = load ptr, ptr %19, align 8, !tbaa !71
  tail call void @free(ptr noundef %20) #17
  tail call void @free(ptr noundef nonnull %.02847) #17
  %.not32 = icmp eq ptr %18, null
  br i1 %.not32, label %._crit_edge50, label %.lr.ph49, !llvm.loop !134

._crit_edge50:                                    ; preds = %.lr.ph49, %._crit_edge45
  store ptr null, ptr getelementptr inbounds nuw (i8, ptr @__itt__ittapi_global, i64 184), align 8, !tbaa !77
  %21 = load ptr, ptr getelementptr inbounds nuw (i8, ptr @__itt__ittapi_global, i64 192), align 8, !tbaa !93
  %.not3351 = icmp eq ptr %21, null
  br i1 %.not3351, label %._crit_edge55, label %.lr.ph54

.lr.ph54:                                         ; preds = %._crit_edge50, %.lr.ph54
  %.02652 = phi ptr [ %23, %.lr.ph54 ], [ %21, %._crit_edge50 ]
  %22 = getelementptr inbounds nuw i8, ptr %.02652, i64 56
  %23 = load ptr, ptr %22, align 8, !tbaa !94
  %24 = getelementptr inbounds nuw i8, ptr %.02652, i64 16
  %25 = load ptr, ptr %24, align 8, !tbaa !92
  tail call void @free(ptr noundef %25) #17
  tail call void @free(ptr noundef nonnull %.02652) #17
  %.not33 = icmp eq ptr %23, null
  br i1 %.not33, label %._crit_edge55, label %.lr.ph54, !llvm.loop !135

._crit_edge55:                                    ; preds = %.lr.ph54, %._crit_edge50
  store ptr null, ptr getelementptr inbounds nuw (i8, ptr @__itt__ittapi_global, i64 192), align 8, !tbaa !93
  ret void
}